; ModuleID = '32/958.c'
source_filename = "32/958.c"
target datalayout = "e-m:e-p270:32:32-p271:32:32-p272:64:64-i64:64-f80:128-n8:16:32:64-S128"
target triple = "x86_64-pc-linux-gnu"

@.str = private unnamed_addr constant [3 x i8] c"%d\00", align 1
@.str.1 = private unnamed_addr constant [3 x i8] c"%s\00", align 1
@.str.2 = private unnamed_addr constant [2 x i8] c"\0A\00", align 1
@.str.3 = private unnamed_addr constant [4 x i8] c"%d\0A\00", align 1

; Function Attrs: noinline nounwind uwtable
define dso_local i32 @main() #0 {
  %1 = alloca i32, align 4
  %2 = alloca [101 x i8], align 16
  %3 = alloca i32, align 4
  %4 = alloca [101 x i32], align 16
  %5 = alloca [101 x i32], align 16
  %6 = alloca [101 x i32], align 16
  %7 = alloca i32, align 4
  %8 = alloca i32, align 4
  %9 = alloca i32, align 4
  %10 = alloca i32, align 4
  %11 = alloca i32, align 4
  store i32 0, i32* %1, align 4
  %12 = bitcast [101 x i32]* %4 to i8*
  call void @llvm.memset.p0i8.i64(i8* align 16 %12, i8 0, i64 404, i1 false)
  %13 = bitcast [101 x i32]* %5 to i8*
  call void @llvm.memset.p0i8.i64(i8* align 16 %13, i8 0, i64 404, i1 false)
  %14 = bitcast [101 x i32]* %6 to i8*
  call void @llvm.memset.p0i8.i64(i8* align 16 %14, i8 0, i64 404, i1 false)
  %15 = call i32 (i8*, ...) @__isoc99_scanf(i8* getelementptr inbounds ([3 x i8], [3 x i8]* @.str, i64 0, i64 0), i32* %3)
  store i32 1, i32* %7, align 4
  br label %16

16:                                               ; preds = %164, %0
  %17 = load i32, i32* %7, align 4
  %18 = load i32, i32* %3, align 4
  %19 = icmp sle i32 %17, %18
  br i1 %19, label %20, label %167

20:                                               ; preds = %16
  store i32 1, i32* %11, align 4
  %21 = getelementptr inbounds [101 x i8], [101 x i8]* %2, i64 0, i64 0
  %22 = call i32 (i8*, ...) @__isoc99_scanf(i8* getelementptr inbounds ([3 x i8], [3 x i8]* @.str.1, i64 0, i64 0), i8* %21)
  %23 = getelementptr inbounds [101 x i8], [101 x i8]* %2, i64 0, i64 0
  %24 = call i64 @strlen(i8* %23) #4
  %25 = trunc i64 %24 to i32
  store i32 %25, i32* %9, align 4
  %26 = load i32, i32* %9, align 4
  %27 = sub nsw i32 %26, 1
  store i32 %27, i32* %8, align 4
  br label %28

28:                                               ; preds = %43, %20
  %29 = load i32, i32* %8, align 4
  %30 = icmp sge i32 %29, 0
  br i1 %30, label %31, label %46

31:                                               ; preds = %28
  %32 = load i32, i32* %8, align 4
  %33 = sext i32 %32 to i64
  %34 = getelementptr inbounds [101 x i8], [101 x i8]* %2, i64 0, i64 %33
  %35 = load i8, i8* %34, align 1
  %36 = sext i8 %35 to i32
  %37 = sub nsw i32 %36, 48
  %38 = load i32, i32* %9, align 4
  %39 = load i32, i32* %8, align 4
  %40 = sub nsw i32 %38, %39
  %41 = sext i32 %40 to i64
  %42 = getelementptr inbounds [101 x i32], [101 x i32]* %4, i64 0, i64 %41
  store i32 %37, i32* %42, align 4
  br label %43

43:                                               ; preds = %31
  %44 = load i32, i32* %8, align 4
  %45 = add nsw i32 %44, -1
  store i32 %45, i32* %8, align 4
  br label %28

46:                                               ; preds = %28
  %47 = getelementptr inbounds [101 x i8], [101 x i8]* %2, i64 0, i64 0
  %48 = call i32 (i8*, ...) @__isoc99_scanf(i8* getelementptr inbounds ([3 x i8], [3 x i8]* @.str.1, i64 0, i64 0), i8* %47)
  %49 = getelementptr inbounds [101 x i8], [101 x i8]* %2, i64 0, i64 0
  %50 = call i64 @strlen(i8* %49) #4
  %51 = trunc i64 %50 to i32
  store i32 %51, i32* %10, align 4
  %52 = load i32, i32* %10, align 4
  %53 = sub nsw i32 %52, 1
  store i32 %53, i32* %8, align 4
  br label %54

54:                                               ; preds = %69, %46
  %55 = load i32, i32* %8, align 4
  %56 = icmp sge i32 %55, 0
  br i1 %56, label %57, label %72

57:                                               ; preds = %54
  %58 = load i32, i32* %8, align 4
  %59 = sext i32 %58 to i64
  %60 = getelementptr inbounds [101 x i8], [101 x i8]* %2, i64 0, i64 %59
  %61 = load i8, i8* %60, align 1
  %62 = sext i8 %61 to i32
  %63 = sub nsw i32 %62, 48
  %64 = load i32, i32* %10, align 4
  %65 = load i32, i32* %8, align 4
  %66 = sub nsw i32 %64, %65
  %67 = sext i32 %66 to i64
  %68 = getelementptr inbounds [101 x i32], [101 x i32]* %5, i64 0, i64 %67
  store i32 %63, i32* %68, align 4
  br label %69

69:                                               ; preds = %57
  %70 = load i32, i32* %8, align 4
  %71 = add nsw i32 %70, -1
  store i32 %71, i32* %8, align 4
  br label %54

72:                                               ; preds = %54
  %73 = load i32, i32* %10, align 4
  %74 = add nsw i32 %73, 1
  store i32 %74, i32* %8, align 4
  br label %75

75:                                               ; preds = %82, %72
  %76 = load i32, i32* %8, align 4
  %77 = icmp sle i32 %76, 100
  br i1 %77, label %78, label %85

78:                                               ; preds = %75
  %79 = load i32, i32* %8, align 4
  %80 = sext i32 %79 to i64
  %81 = getelementptr inbounds [101 x i32], [101 x i32]* %5, i64 0, i64 %80
  store i32 0, i32* %81, align 4
  br label %82

82:                                               ; preds = %78
  %83 = load i32, i32* %8, align 4
  %84 = add nsw i32 %83, 1
  store i32 %84, i32* %8, align 4
  br label %75

85:                                               ; preds = %75
  store i32 1, i32* %8, align 4
  br label %86

86:                                               ; preds = %125, %85
  %87 = load i32, i32* %8, align 4
  %88 = load i32, i32* %9, align 4
  %89 = icmp sle i32 %87, %88
  br i1 %89, label %90, label %128

90:                                               ; preds = %86
  %91 = load i32, i32* %8, align 4
  %92 = sext i32 %91 to i64
  %93 = getelementptr inbounds [101 x i32], [101 x i32]* %4, i64 0, i64 %92
  %94 = load i32, i32* %93, align 4
  %95 = load i32, i32* %8, align 4
  %96 = sext i32 %95 to i64
  %97 = getelementptr inbounds [101 x i32], [101 x i32]* %5, i64 0, i64 %96
  %98 = load i32, i32* %97, align 4
  %99 = icmp slt i32 %94, %98
  br i1 %99, label %100, label %112

100:                                              ; preds = %90
  %101 = load i32, i32* %8, align 4
  %102 = sext i32 %101 to i64
  %103 = getelementptr inbounds [101 x i32], [101 x i32]* %4, i64 0, i64 %102
  %104 = load i32, i32* %103, align 4
  %105 = add nsw i32 %104, 10
  store i32 %105, i32* %103, align 4
  %106 = load i32, i32* %8, align 4
  %107 = add nsw i32 %106, 1
  %108 = sext i32 %107 to i64
  %109 = getelementptr inbounds [101 x i32], [101 x i32]* %4, i64 0, i64 %108
  %110 = load i32, i32* %109, align 4
  %111 = add nsw i32 %110, -1
  store i32 %111, i32* %109, align 4
  br label %112

112:                                              ; preds = %100, %90
  %113 = load i32, i32* %8, align 4
  %114 = sext i32 %113 to i64
  %115 = getelementptr inbounds [101 x i32], [101 x i32]* %4, i64 0, i64 %114
  %116 = load i32, i32* %115, align 4
  %117 = load i32, i32* %8, align 4
  %118 = sext i32 %117 to i64
  %119 = getelementptr inbounds [101 x i32], [101 x i32]* %5, i64 0, i64 %118
  %120 = load i32, i32* %119, align 4
  %121 = sub nsw i32 %116, %120
  %122 = load i32, i32* %8, align 4
  %123 = sext i32 %122 to i64
  %124 = getelementptr inbounds [101 x i32], [101 x i32]* %6, i64 0, i64 %123
  store i32 %121, i32* %124, align 4
  br label %125

125:                                              ; preds = %112
  %126 = load i32, i32* %8, align 4
  %127 = add nsw i32 %126, 1
  store i32 %127, i32* %8, align 4
  br label %86

128:                                              ; preds = %86
  br label %129

129:                                              ; preds = %141, %128
  %130 = load i32, i32* %9, align 4
  %131 = sext i32 %130 to i64
  %132 = getelementptr inbounds [101 x i32], [101 x i32]* %6, i64 0, i64 %131
  %133 = load i32, i32* %132, align 4
  %134 = icmp eq i32 %133, 0
  br i1 %134, label %135, label %142

135:                                              ; preds = %129
  %136 = load i32, i32* %9, align 4
  %137 = add nsw i32 %136, -1
  store i32 %137, i32* %9, align 4
  %138 = load i32, i32* %9, align 4
  %139 = icmp eq i32 %138, 0
  br i1 %139, label %140, label %141

140:                                              ; preds = %135
  store i32 0, i32* %11, align 4
  br label %142

141:                                              ; preds = %135
  br label %129

142:                                              ; preds = %140, %129
  %143 = load i32, i32* %11, align 4
  %144 = icmp ne i32 %143, 0
  br i1 %144, label %145, label %161

145:                                              ; preds = %142
  %146 = load i32, i32* %9, align 4
  store i32 %146, i32* %8, align 4
  br label %147

147:                                              ; preds = %156, %145
  %148 = load i32, i32* %8, align 4
  %149 = icmp sge i32 %148, 1
  br i1 %149, label %150, label %159

150:                                              ; preds = %147
  %151 = load i32, i32* %8, align 4
  %152 = sext i32 %151 to i64
  %153 = getelementptr inbounds [101 x i32], [101 x i32]* %6, i64 0, i64 %152
  %154 = load i32, i32* %153, align 4
  %155 = call i32 (i8*, ...) @printf(i8* getelementptr inbounds ([3 x i8], [3 x i8]* @.str, i64 0, i64 0), i32 %154)
  br label %156

156:                                              ; preds = %150
  %157 = load i32, i32* %8, align 4
  %158 = add nsw i32 %157, -1
  store i32 %158, i32* %8, align 4
  br label %147

159:                                              ; preds = %147
  %160 = call i32 (i8*, ...) @printf(i8* getelementptr inbounds ([2 x i8], [2 x i8]* @.str.2, i64 0, i64 0))
  br label %163

161:                                              ; preds = %142
  %162 = call i32 (i8*, ...) @printf(i8* getelementptr inbounds ([4 x i8], [4 x i8]* @.str.3, i64 0, i64 0), i32 0)
  br label %163

163:                                              ; preds = %161, %159
  br label %164

164:                                              ; preds = %163
  %165 = load i32, i32* %7, align 4
  %166 = add nsw i32 %165, 1
  store i32 %166, i32* %7, align 4
  br label %16

167:                                              ; preds = %16
  %168 = load i32, i32* %1, align 4
  ret i32 %168
}

; Function Attrs: argmemonly nounwind willreturn
declare void @llvm.memset.p0i8.i64(i8* nocapture writeonly, i8, i64, i1 immarg) #1

declare dso_local i32 @__isoc99_scanf(i8*, ...) #2

; Function Attrs: nounwind readonly
declare dso_local i64 @strlen(i8*) #3

declare dso_local i32 @printf(i8*, ...) #2


!llvm.module.flags = !{!0}
!llvm.ident = !{!1}

!0 = !{i32 1, !"wchar_size", i32 4}
!1 = !{!"clang version 10.0.0-4ubuntu1 "}
